target datalayout = "e-m:e-p270:32:32-p271:32:32-p272:64:64-i64:64-i128:128-f80:128-n8:16:32:64-S128"
target triple = "x86_64-pc-linux-gnu"

%struct.buffer_slab = type { i32, i32, i32, ptr }

; Function Attrs: nounwind uwtable
define internal void @init_buffer_slab_with_stride(ptr noundef %0, i32 noundef %1) #0 {
  %3 = alloca ptr, align 8
  %4 = alloca i32, align 4
  %5 = alloca i32, align 4
  store ptr %0, ptr %3, align 8, !tbaa !78
  store i32 %1, ptr %4, align 4, !tbaa !11
  call void @llvm.lifetime.start.p0(i64 4, ptr %5) #11
  %6 = load i32, ptr %4, align 4, !tbaa !11
  %7 = icmp ne i32 %6, 0
  br i1 %7, label %9, label %8

8:                                                ; preds = %2
  store i32 1, ptr %4, align 4, !tbaa !11
  br label %9

9:                                                ; preds = %8, %2
  %10 = load i32, ptr %4, align 4, !tbaa !11
  %11 = load ptr, ptr %3, align 8, !tbaa !78
  %12 = getelementptr inbounds nuw %struct.buffer_slab, ptr %11, i32 0, i32 1
  store i32 %10, ptr %12, align 4, !tbaa !229
  %13 = load i32, ptr %4, align 4, !tbaa !11
  %14 = zext i32 %13 to i64
  %15 = mul i64 16, %14
  %16 = trunc i64 %15 to i32
  store i32 %16, ptr %5, align 4, !tbaa !11
  %17 = load i32, ptr %5, align 4, !tbaa !11
  %18 = udiv i32 524256, %17
  %19 = load ptr, ptr %3, align 8, !tbaa !78
  %20 = getelementptr inbounds nuw %struct.buffer_slab, ptr %19, i32 0, i32 0
  store i32 %18, ptr %20, align 8, !tbaa !230
  %21 = load ptr, ptr %3, align 8, !tbaa !78
  %22 = getelementptr inbounds nuw %struct.buffer_slab, ptr %21, i32 0, i32 2
  store i32 0, ptr %22, align 8, !tbaa !79
  %23 = load ptr, ptr %3, align 8, !tbaa !78
  %24 = getelementptr inbounds nuw %struct.buffer_slab, ptr %23, i32 0, i32 3
  store ptr null, ptr %24, align 8, !tbaa !82
  call void @llvm.lifetime.end.p0(i64 4, ptr %5) #11
  ret void
}

; Function Attrs: nounwind uwtable
define internal void @init_buffer_slab(ptr noundef %0) #0 {
  %2 = alloca ptr, align 8
  store ptr %0, ptr %2, align 8, !tbaa !78
  %3 = load ptr, ptr %2, align 8, !tbaa !78
  call void @init_buffer_slab_with_stride(ptr noundef %3, i32 noundef 1)
  ret void
}

; Function Attrs: nounwind uwtable
define dso_local ptr @allocate_commit_buffer_slab() #0 {
  %1 = alloca ptr, align 8
  call void @llvm.lifetime.start.p0(i64 8, ptr %1) #11
  %2 = call ptr @xmalloc(i64 noundef 24)
  store ptr %2, ptr %1, align 8, !tbaa !78
  %3 = load ptr, ptr %1, align 8, !tbaa !78
  call void @init_buffer_slab(ptr noundef %3)
  %4 = load ptr, ptr %1, align 8, !tbaa !78
  call void @llvm.lifetime.end.p0(i64 8, ptr %1) #11
  ret ptr %4
}