; Function Attrs: nounwind uwtable
define dso_local noundef ptr @allocate_commit_buffer_slab() local_unnamed_addr #0 {
  %1 = tail call ptr @xmalloc(i64 noundef 24) #24
  %2 = getelementptr inbounds nuw i8, ptr %1, i64 4
  store i32 1, ptr %2, align 4, !tbaa !67
  store i32 32766, ptr %1, align 8, !tbaa !70
  %3 = getelementptr inbounds nuw i8, ptr %1, i64 8
  store i32 0, ptr %3, align 8, !tbaa !71
  %4 = getelementptr inbounds nuw i8, ptr %1, i64 16
  store ptr null, ptr %4, align 8, !tbaa !72
  ret ptr %1
}